target datalayout = "e-m:e-p270:32:32-p271:32:32-p272:64:64-i64:64-i128:128-f80:128-n8:16:32:64-S128"
target triple = "x86_64-unknown-linux-gnu"

%"class.icu_75::NGramParser" = type { ptr, i32, ptr, i32, i32, i32, ptr }
%"class.icu_75::InputText" = type <{ ptr, i32, [4 x i8], ptr, i8, [7 x i8], ptr, ptr, i32, [4 x i8] }>
%"class.icu_75::NGramParser_IBM420" = type <{ %"class.icu_75::NGramParser", i32, [4 x i8] }>

; Function Attrs: mustprogress nounwind uwtable
define noundef i32 @_ZN6icu_7518NGramParser_IBM4209isLamAlefEi(ptr noundef nonnull align 8 dereferenceable(52) %this, i32 noundef %b) #0 align 2 {
entry:
  %retval = alloca i32, align 4
  %this.addr = alloca ptr, align 8
  %b.addr = alloca i32, align 4
  store ptr %this, ptr %this.addr, align 8
  store i32 %b, ptr %b.addr, align 4
  %0 = load i32, ptr %b.addr, align 4
  %cmp = icmp eq i32 %0, 178
  br i1 %cmp, label %if.then, label %lor.lhs.false

lor.lhs.false:                                    ; preds = %entry
  %1 = load i32, ptr %b.addr, align 4
  %cmp2 = icmp eq i32 %1, 179
  br i1 %cmp2, label %if.then, label %if.else

if.then:                                          ; preds = %lor.lhs.false, %entry
  store i32 71, ptr %retval, align 4
  br label %return

if.else:                                          ; preds = %lor.lhs.false
  %2 = load i32, ptr %b.addr, align 4
  %cmp3 = icmp eq i32 %2, 180
  br i1 %cmp3, label %if.then6, label %lor.lhs.false4

lor.lhs.false4:                                   ; preds = %if.else
  %3 = load i32, ptr %b.addr, align 4
  %cmp5 = icmp eq i32 %3, 181
  br i1 %cmp5, label %if.then6, label %if.else7

if.then6:                                         ; preds = %lor.lhs.false4, %if.else
  store i32 73, ptr %retval, align 4
  br label %return

if.else7:                                         ; preds = %lor.lhs.false4
  %4 = load i32, ptr %b.addr, align 4
  %cmp8 = icmp eq i32 %4, 184
  br i1 %cmp8, label %if.then11, label %lor.lhs.false9

lor.lhs.false9:                                   ; preds = %if.else7
  %5 = load i32, ptr %b.addr, align 4
  %cmp10 = icmp eq i32 %5, 185
  br i1 %cmp10, label %if.then11, label %if.else12

if.then11:                                        ; preds = %lor.lhs.false9, %if.else7
  store i32 86, ptr %retval, align 4
  br label %return

if.else12:                                        ; preds = %lor.lhs.false9
  store i32 0, ptr %retval, align 4
  br label %return

return:                                           ; preds = %if.else12, %if.then11, %if.then6, %if.then
  %6 = load i32, ptr %retval, align 4
  ret i32 %6
}

; Function Attrs: mustprogress nounwind uwtable
define noundef i32 @_ZN6icu_7518NGramParser_IBM4208nextByteEPNS_9InputTextE(ptr noundef nonnull align 8 dereferenceable(52) %this, ptr noundef %det) unnamed_addr #0 align 2 {
entry:
  %retval = alloca i32, align 4
  %this.addr = alloca ptr, align 8
  %det.addr = alloca ptr, align 8
  %next = alloca i32, align 4
  store ptr %this, ptr %this.addr, align 8
  store ptr %det, ptr %det.addr, align 8
  %this1 = load ptr, ptr %this.addr, align 8
  %byteIndex = getelementptr inbounds %"class.icu_75::NGramParser", ptr %this1, i32 0, i32 5
  %0 = load i32, ptr %byteIndex, align 8
  %1 = load ptr, ptr %det.addr, align 8
  %fInputLen = getelementptr inbounds %"class.icu_75::InputText", ptr %1, i32 0, i32 1
  %2 = load i32, ptr %fInputLen, align 8
  %cmp = icmp sge i32 %0, %2
  br i1 %cmp, label %if.then, label %lor.lhs.false

lor.lhs.false:                                    ; preds = %entry
  %3 = load ptr, ptr %det.addr, align 8
  %fInputBytes = getelementptr inbounds %"class.icu_75::InputText", ptr %3, i32 0, i32 0
  %4 = load ptr, ptr %fInputBytes, align 8
  %byteIndex2 = getelementptr inbounds %"class.icu_75::NGramParser", ptr %this1, i32 0, i32 5
  %5 = load i32, ptr %byteIndex2, align 8
  %idxprom = sext i32 %5 to i64
  %arrayidx = getelementptr inbounds i8, ptr %4, i64 %idxprom
  %6 = load i8, ptr %arrayidx, align 1
  %conv = zext i8 %6 to i32
  %cmp3 = icmp eq i32 %conv, 0
  br i1 %cmp3, label %if.then, label %if.end

if.then:                                          ; preds = %lor.lhs.false, %entry
  store i32 -1, ptr %retval, align 4
  br label %return

if.end:                                           ; preds = %lor.lhs.false
  %7 = load ptr, ptr %det.addr, align 8
  %fInputBytes4 = getelementptr inbounds %"class.icu_75::InputText", ptr %7, i32 0, i32 0
  %8 = load ptr, ptr %fInputBytes4, align 8
  %byteIndex5 = getelementptr inbounds %"class.icu_75::NGramParser", ptr %this1, i32 0, i32 5
  %9 = load i32, ptr %byteIndex5, align 8
  %idxprom6 = sext i32 %9 to i64
  %arrayidx7 = getelementptr inbounds i8, ptr %8, i64 %idxprom6
  %10 = load i8, ptr %arrayidx7, align 1
  %conv8 = zext i8 %10 to i32
  %call = call noundef i32 @_ZN6icu_7518NGramParser_IBM4209isLamAlefEi(ptr noundef nonnull align 8 dereferenceable(52) %this1, i32 noundef %conv8)
  %alef = getelementptr inbounds %"class.icu_75::NGramParser_IBM420", ptr %this1, i32 0, i32 1
  store i32 %call, ptr %alef, align 8
  %alef9 = getelementptr inbounds %"class.icu_75::NGramParser_IBM420", ptr %this1, i32 0, i32 1
  %11 = load i32, ptr %alef9, align 8
  %cmp10 = icmp ne i32 %11, 0
  br i1 %cmp10, label %if.then11, label %if.else

if.then11:                                        ; preds = %if.end
  store i32 177, ptr %next, align 4
  br label %if.end21

if.else:                                          ; preds = %if.end
  %12 = load ptr, ptr %det.addr, align 8
  %fInputBytes12 = getelementptr inbounds %"class.icu_75::InputText", ptr %12, i32 0, i32 0
  %13 = load ptr, ptr %fInputBytes12, align 8
  %byteIndex13 = getelementptr inbounds %"class.icu_75::NGramParser", ptr %this1, i32 0, i32 5
  %14 = load i32, ptr %byteIndex13, align 8
  %idxprom14 = sext i32 %14 to i64
  %arrayidx15 = getelementptr inbounds i8, ptr %13, i64 %idxprom14
  %15 = load i8, ptr %arrayidx15, align 1
  %conv16 = zext i8 %15 to i32
  %and = and i32 %conv16, 255
  %idxprom17 = sext i32 %and to i64
  %arrayidx18 = getelementptr inbounds [256 x i8], ptr @_ZN6icu_75L17unshapeMap_IBM420E, i64 0, i64 %idxprom17
  %16 = load i8, ptr %arrayidx18, align 1
  %conv19 = zext i8 %16 to i32
  %and20 = and i32 %conv19, 255
  store i32 %and20, ptr %next, align 4
  br label %if.end21

if.end21:                                         ; preds = %if.else, %if.then11
  %byteIndex22 = getelementptr inbounds %"class.icu_75::NGramParser", ptr %this1, i32 0, i32 5
  %17 = load i32, ptr %byteIndex22, align 8
  %inc = add nsw i32 %17, 1
  store i32 %inc, ptr %byteIndex22, align 8
  %18 = load i32, ptr %next, align 4
  store i32 %18, ptr %retval, align 4
  br label %return

return:                                           ; preds = %if.end21, %if.then
  %19 = load i32, ptr %retval, align 4
  ret i32 %19
}