; Function Attrs: mustprogress nofree norecurse nosync nounwind willreturn memory(read, argmem: readwrite, inaccessiblemem: none) uwtable
define noundef i32 @_ZN6icu_7518NGramParser_IBM4208nextByteEPNS_9InputTextE(ptr nocapture noundef nonnull align 8 dereferenceable(52) %this, ptr nocapture noundef readonly %det) unnamed_addr #5 align 2 {
entry:
  %byteIndex = getelementptr inbounds i8, ptr %this, i64 32
  %0 = load i32, ptr %byteIndex, align 8
  %fInputLen = getelementptr inbounds i8, ptr %det, i64 8
  %1 = load i32, ptr %fInputLen, align 8
  %cmp.not = icmp slt i32 %0, %1
  br i1 %cmp.not, label %lor.lhs.false, label %return

lor.lhs.false:                                    ; preds = %entry
  %2 = load ptr, ptr %det, align 8
  %idxprom = sext i32 %0 to i64
  %arrayidx = getelementptr inbounds i8, ptr %2, i64 %idxprom
  %3 = load i8, ptr %arrayidx, align 1
  %cmp3 = icmp eq i8 %3, 0
  br i1 %cmp3, label %return, label %if.end

if.end:                                           ; preds = %lor.lhs.false
  %4 = and i8 %3, -2
  switch i8 %4, label %if.else [
    i8 -78, label %_ZN6icu_7518NGramParser_IBM4209isLamAlefEi.exit.thread
    i8 -76, label %return.fold.split.i
    i8 -72, label %_ZN6icu_7518NGramParser_IBM4209isLamAlefEi.exit.thread.fold.split
  ]

return.fold.split.i:                              ; preds = %if.end
  br label %_ZN6icu_7518NGramParser_IBM4209isLamAlefEi.exit.thread

_ZN6icu_7518NGramParser_IBM4209isLamAlefEi.exit.thread.fold.split: ; preds = %if.end
  br label %_ZN6icu_7518NGramParser_IBM4209isLamAlefEi.exit.thread

_ZN6icu_7518NGramParser_IBM4209isLamAlefEi.exit.thread: ; preds = %if.end, %_ZN6icu_7518NGramParser_IBM4209isLamAlefEi.exit.thread.fold.split, %return.fold.split.i
  %retval.0.i.ph = phi i32 [ 73, %return.fold.split.i ], [ 71, %if.end ], [ 86, %_ZN6icu_7518NGramParser_IBM4209isLamAlefEi.exit.thread.fold.split ]
  %alef5 = getelementptr inbounds i8, ptr %this, i64 48
  store i32 %retval.0.i.ph, ptr %alef5, align 8
  br label %if.end21

if.else:                                          ; preds = %if.end
  %alef = getelementptr inbounds i8, ptr %this, i64 48
  store i32 0, ptr %alef, align 8
  %5 = load ptr, ptr %det, align 8
  %arrayidx15 = getelementptr inbounds i8, ptr %5, i64 %idxprom
  %6 = load i8, ptr %arrayidx15, align 1
  %idxprom17 = zext i8 %6 to i64
  %arrayidx18 = getelementptr inbounds [256 x i8], ptr @_ZN6icu_75L17unshapeMap_IBM420E, i64 0, i64 %idxprom17
  %7 = load i8, ptr %arrayidx18, align 1
  %conv19 = zext i8 %7 to i32
  br label %if.end21

if.end21:                                         ; preds = %_ZN6icu_7518NGramParser_IBM4209isLamAlefEi.exit.thread, %if.else
  %next.0 = phi i32 [ %conv19, %if.else ], [ 177, %_ZN6icu_7518NGramParser_IBM4209isLamAlefEi.exit.thread ]
  %inc = add nsw i32 %0, 1
  store i32 %inc, ptr %byteIndex, align 8
  br label %return

return:                                           ; preds = %entry, %lor.lhs.false, %if.end21
  %retval.0 = phi i32 [ %next.0, %if.end21 ], [ -1, %lor.lhs.false ], [ -1, %entry ]
  ret i32 %retval.0
}